; Function Attrs: inlinehint mustprogress nounwind uwtable
define internal void @_ZN9grpc_core12_GLOBAL__N_110RoundRobin22RoundRobinEndpointListD0Ev(ptr noundef nonnull align 8 dereferenceable(128) %0) unnamed_addr #16 align 2 personality ptr @__gxx_personality_v0 {
  %2 = getelementptr inbounds nuw i8, ptr %0, i64 120
  %3 = load i64, ptr %2, align 8, !tbaa !65
  %4 = and i64 %3, 1
  %.not.i.i.i = icmp eq i64 %4, 0
  br i1 %.not.i.i.i, label %5, label %_ZN9grpc_core12_GLOBAL__N_110RoundRobin22RoundRobinEndpointListD2Ev.exit

5:                                                ; preds = %1
  %6 = inttoptr i64 %3 to ptr
  invoke void @_ZNK4absl12lts_2024072215status_internal9StatusRep5UnrefEv(ptr noundef nonnull align 8 dereferenceable(48) %6)
          to label %_ZN9grpc_core12_GLOBAL__N_110RoundRobin22RoundRobinEndpointListD2Ev.exit unwind label %7

7:                                                ; preds = %5
  %8 = landingpad { ptr, i32 }
          catch ptr null
  %9 = extractvalue { ptr, i32 } %8, 0
  tail call void @__clang_call_terminate(ptr %9) #33
  unreachable

_ZN9grpc_core12_GLOBAL__N_110RoundRobin22RoundRobinEndpointListD2Ev.exit: ; preds = %1, %5
  tail call void @_ZN9grpc_core12EndpointListD2Ev(ptr noundef nonnull align 8 dereferenceable(128) %0) #30
  tail call void @_ZdlPvm(ptr noundef nonnull %0, i64 noundef 128) #32
  ret void
}